; ModuleID = '19/670.c'
source_filename = "19/670.c"
target datalayout = "e-m:e-p270:32:32-p271:32:32-p272:64:64-i64:64-f80:128-n8:16:32:64-S128"
target triple = "x86_64-pc-linux-gnu"

@.str = private unnamed_addr constant [4 x i8] c"%s \00", align 1
@.str.1 = private unnamed_addr constant [3 x i8] c"%s\00", align 1

; Function Attrs: noinline nounwind uwtable
define dso_local i32 @main(i32 %0, i8** %1) #0 {
  %3 = alloca i32, align 4
  %4 = alloca i32, align 4
  %5 = alloca i8**, align 8
  %6 = alloca [101 x i8], align 16
  %7 = alloca [101 x i8], align 16
  %8 = alloca [101 x i8], align 16
  %9 = alloca [100 x [101 x i8]], align 16
  %10 = alloca i32, align 4
  %11 = alloca i32, align 4
  %12 = alloca i32, align 4
  store i32 0, i32* %3, align 4
  store i32 %0, i32* %4, align 4
  store i8** %1, i8*** %5, align 8
  %13 = getelementptr inbounds [101 x i8], [101 x i8]* %6, i64 0, i64 0
  %14 = call i32 (i8*, ...) bitcast (i32 (...)* @gets to i32 (i8*, ...)*)(i8* %13)
  %15 = getelementptr inbounds [101 x i8], [101 x i8]* %7, i64 0, i64 0
  %16 = call i32 (i8*, ...) bitcast (i32 (...)* @gets to i32 (i8*, ...)*)(i8* %15)
  %17 = getelementptr inbounds [101 x i8], [101 x i8]* %8, i64 0, i64 0
  %18 = call i32 (i8*, ...) bitcast (i32 (...)* @gets to i32 (i8*, ...)*)(i8* %17)
  store i32 0, i32* %10, align 4
  store i32 0, i32* %11, align 4
  store i32 0, i32* %12, align 4
  br label %19

19:                                               ; preds = %51, %2
  %20 = load i32, i32* %12, align 4
  %21 = sext i32 %20 to i64
  %22 = getelementptr inbounds [101 x i8], [101 x i8]* %6, i64 0, i64 %21
  %23 = load i8, i8* %22, align 1
  %24 = sext i8 %23 to i32
  %25 = icmp ne i32 %24, 0
  br i1 %25, label %26, label %54

26:                                               ; preds = %19
  %27 = load i32, i32* %12, align 4
  %28 = sext i32 %27 to i64
  %29 = getelementptr inbounds [101 x i8], [101 x i8]* %6, i64 0, i64 %28
  %30 = load i8, i8* %29, align 1
  %31 = sext i8 %30 to i32
  %32 = icmp eq i32 %31, 32
  br i1 %32, label %33, label %50

33:                                               ; preds = %26
  %34 = load i32, i32* %12, align 4
  %35 = sext i32 %34 to i64
  %36 = getelementptr inbounds [101 x i8], [101 x i8]* %6, i64 0, i64 %35
  store i8 0, i8* %36, align 1
  %37 = load i32, i32* %10, align 4
  %38 = sext i32 %37 to i64
  %39 = getelementptr inbounds [100 x [101 x i8]], [100 x [101 x i8]]* %9, i64 0, i64 %38
  %40 = getelementptr inbounds [101 x i8], [101 x i8]* %39, i64 0, i64 0
  %41 = getelementptr inbounds [101 x i8], [101 x i8]* %6, i64 0, i64 0
  %42 = load i32, i32* %11, align 4
  %43 = sext i32 %42 to i64
  %44 = getelementptr inbounds i8, i8* %41, i64 %43
  %45 = call i8* @strcpy(i8* %40, i8* %44) #4
  %46 = load i32, i32* %10, align 4
  %47 = add nsw i32 %46, 1
  store i32 %47, i32* %10, align 4
  %48 = load i32, i32* %12, align 4
  %49 = add nsw i32 %48, 1
  store i32 %49, i32* %11, align 4
  br label %50

50:                                               ; preds = %33, %26
  br label %51

51:                                               ; preds = %50
  %52 = load i32, i32* %12, align 4
  %53 = add nsw i32 %52, 1
  store i32 %53, i32* %12, align 4
  br label %19

54:                                               ; preds = %19
  %55 = load i32, i32* %10, align 4
  %56 = sext i32 %55 to i64
  %57 = getelementptr inbounds [100 x [101 x i8]], [100 x [101 x i8]]* %9, i64 0, i64 %56
  %58 = getelementptr inbounds [101 x i8], [101 x i8]* %57, i64 0, i64 0
  %59 = getelementptr inbounds [101 x i8], [101 x i8]* %6, i64 0, i64 0
  %60 = load i32, i32* %11, align 4
  %61 = sext i32 %60 to i64
  %62 = getelementptr inbounds i8, i8* %59, i64 %61
  %63 = call i8* @strcpy(i8* %58, i8* %62) #4
  %64 = load i32, i32* %10, align 4
  %65 = add nsw i32 %64, 1
  store i32 %65, i32* %10, align 4
  store i32 0, i32* %12, align 4
  br label %66

66:                                               ; preds = %86, %54
  %67 = load i32, i32* %12, align 4
  %68 = load i32, i32* %10, align 4
  %69 = icmp slt i32 %67, %68
  br i1 %69, label %70, label %89

70:                                               ; preds = %66
  %71 = getelementptr inbounds [101 x i8], [101 x i8]* %7, i64 0, i64 0
  %72 = load i32, i32* %12, align 4
  %73 = sext i32 %72 to i64
  %74 = getelementptr inbounds [100 x [101 x i8]], [100 x [101 x i8]]* %9, i64 0, i64 %73
  %75 = getelementptr inbounds [101 x i8], [101 x i8]* %74, i64 0, i64 0
  %76 = call i32 @strcmp(i8* %71, i8* %75) #5
  %77 = icmp eq i32 %76, 0
  br i1 %77, label %78, label %85

78:                                               ; preds = %70
  %79 = load i32, i32* %12, align 4
  %80 = sext i32 %79 to i64
  %81 = getelementptr inbounds [100 x [101 x i8]], [100 x [101 x i8]]* %9, i64 0, i64 %80
  %82 = getelementptr inbounds [101 x i8], [101 x i8]* %81, i64 0, i64 0
  %83 = getelementptr inbounds [101 x i8], [101 x i8]* %8, i64 0, i64 0
  %84 = call i8* @strcpy(i8* %82, i8* %83) #4
  br label %85

85:                                               ; preds = %78, %70
  br label %86

86:                                               ; preds = %85
  %87 = load i32, i32* %12, align 4
  %88 = add nsw i32 %87, 1
  store i32 %88, i32* %12, align 4
  br label %66

89:                                               ; preds = %66
  store i32 0, i32* %12, align 4
  br label %90

90:                                               ; preds = %101, %89
  %91 = load i32, i32* %12, align 4
  %92 = load i32, i32* %10, align 4
  %93 = sub nsw i32 %92, 1
  %94 = icmp slt i32 %91, %93
  br i1 %94, label %95, label %104

95:                                               ; preds = %90
  %96 = load i32, i32* %12, align 4
  %97 = sext i32 %96 to i64
  %98 = getelementptr inbounds [100 x [101 x i8]], [100 x [101 x i8]]* %9, i64 0, i64 %97
  %99 = getelementptr inbounds [101 x i8], [101 x i8]* %98, i64 0, i64 0
  %100 = call i32 (i8*, ...) @printf(i8* getelementptr inbounds ([4 x i8], [4 x i8]* @.str, i64 0, i64 0), i8* %99)
  br label %101

101:                                              ; preds = %95
  %102 = load i32, i32* %12, align 4
  %103 = add nsw i32 %102, 1
  store i32 %103, i32* %12, align 4
  br label %90

104:                                              ; preds = %90
  %105 = load i32, i32* %10, align 4
  %106 = sub nsw i32 %105, 1
  %107 = sext i32 %106 to i64
  %108 = getelementptr inbounds [100 x [101 x i8]], [100 x [101 x i8]]* %9, i64 0, i64 %107
  %109 = getelementptr inbounds [101 x i8], [101 x i8]* %108, i64 0, i64 0
  %110 = call i32 (i8*, ...) @printf(i8* getelementptr inbounds ([3 x i8], [3 x i8]* @.str.1, i64 0, i64 0), i8* %109)
  ret i32 0
}

declare dso_local i32 @gets(...) #1

; Function Attrs: nounwind
declare dso_local i8* @strcpy(i8*, i8*) #2

; Function Attrs: nounwind readonly
declare dso_local i32 @strcmp(i8*, i8*) #3

declare dso_local i32 @printf(i8*, ...) #1


!llvm.module.flags = !{!0}
!llvm.ident = !{!1}

!0 = !{i32 1, !"wchar_size", i32 4}
!1 = !{!"clang version 10.0.0-4ubuntu1 "}
